; Function Attrs: mustprogress nofree norecurse nosync nounwind sspstrong willreturn memory(argmem: readwrite) uwtable
define void @_ZN3tbb6detail2r123task_group_context_impl16copy_fp_settingsERNS0_2d118task_group_contextERKS4_(ptr noundef nonnull align 8 captures(none) dereferenceable(128) initializes((0, 8)) %0, ptr noundef nonnull readonly align 8 captures(none) dereferenceable(128) %1) local_unnamed_addr #9 align 2 {
  %3 = load i64, ptr %1, align 8
  store i64 %3, ptr %0, align 8
  %4 = getelementptr inbounds nuw i8, ptr %0, i64 13
  %5 = load i8, ptr %4, align 1
  %6 = or i8 %5, 1
  store i8 %6, ptr %4, align 1
  ret void
}